target datalayout = "e-m:e-p270:32:32-p271:32:32-p272:64:64-i64:64-i128:128-f80:128-n8:16:32:64-S128"
target triple = "x86_64-pc-linux-gnu"

%struct.tinfl_decompressor_tag = type { i32, i32, i32, i32, i32, i32, i32, i32, i32, i32, i32, [3 x i32], i64, i64, [3 x [1024 x i16]], [576 x i16], [64 x i16], [38 x i16], [288 x i8], [32 x i8], [19 x i8], [4 x i8], [457 x i8] }
%struct.mz_zip_archive = type { i64, i64, i32, i32, i32, i32, i64, ptr, ptr, ptr, ptr, ptr, ptr, ptr, ptr, ptr }
%struct.mz_zip_internal_state_tag = type { %struct.mz_zip_array, %struct.mz_zip_array, %struct.mz_zip_array, i32, i32, i32, ptr, i64, ptr, i64, i64 }
%struct.mz_zip_array = type { ptr, i64, i64, i32 }
%struct.mz_zip_archive_file_stat = type { i32, i64, i16, i16, i16, i16, i32, i64, i64, i16, i32, i64, i32, i32, i32, i32, [512 x i8], [512 x i8], i64 }
%struct.mz_zip_reader_extract_iter_state = type { ptr, i32, i32, i64, i64, i64, i64, i64, i64, %struct.mz_zip_archive_file_stat, ptr, ptr, i64, %struct.tinfl_decompressor_tag, i32 }

; Function Attrs: alwaysinline nounwind uwtable
define internal i32 @mz_zip_set_error(ptr noundef %0, i32 noundef %1) #7 {
  %3 = alloca ptr, align 8
  %4 = alloca i32, align 4
  store ptr %0, ptr %3, align 8
  store i32 %1, ptr %4, align 4
  %5 = load ptr, ptr %3, align 8
  %6 = icmp ne ptr %5, null
  br i1 %6, label %7, label %11

7:                                                ; preds = %2
  %8 = load i32, ptr %4, align 4
  %9 = load ptr, ptr %3, align 8
  %10 = getelementptr inbounds nuw %struct.mz_zip_archive, ptr %9, i32 0, i32 5
  store i32 %8, ptr %10, align 4
  br label %11

11:                                               ; preds = %7, %2
  ret i32 0
}

; Function Attrs: nounwind uwtable
define i32 @mz_zip_reader_extract_iter_free(ptr noundef %0) #0 {
  %2 = alloca i32, align 4
  %3 = alloca ptr, align 8
  %4 = alloca i32, align 4
  %5 = alloca i32, align 4
  store ptr %0, ptr %3, align 8
  call void @llvm.lifetime.start.p0(i64 4, ptr %4) #13
  %6 = load ptr, ptr %3, align 8
  %7 = icmp ne ptr %6, null
  br i1 %7, label %8, label %20

8:                                                ; preds = %1
  %9 = load ptr, ptr %3, align 8
  %10 = getelementptr inbounds nuw %struct.mz_zip_reader_extract_iter_state, ptr %9, i32 0, i32 0
  %11 = load ptr, ptr %10, align 8
  %12 = icmp ne ptr %11, null
  br i1 %12, label %13, label %20

13:                                               ; preds = %8
  %14 = load ptr, ptr %3, align 8
  %15 = getelementptr inbounds nuw %struct.mz_zip_reader_extract_iter_state, ptr %14, i32 0, i32 0
  %16 = load ptr, ptr %15, align 8
  %17 = getelementptr inbounds nuw %struct.mz_zip_archive, ptr %16, i32 0, i32 15
  %18 = load ptr, ptr %17, align 8
  %19 = icmp ne ptr %18, null
  br i1 %19, label %21, label %20

20:                                               ; preds = %13, %8, %1
  store i32 0, ptr %2, align 4
  store i32 1, ptr %5, align 4
  br label %126

21:                                               ; preds = %13
  %22 = load ptr, ptr %3, align 8
  %23 = getelementptr inbounds nuw %struct.mz_zip_reader_extract_iter_state, ptr %22, i32 0, i32 2
  %24 = load i32, ptr %23, align 4
  %25 = icmp eq i32 %24, 0
  br i1 %25, label %26, label %66

26:                                               ; preds = %21
  %27 = load ptr, ptr %3, align 8
  %28 = getelementptr inbounds nuw %struct.mz_zip_reader_extract_iter_state, ptr %27, i32 0, i32 1
  %29 = load i32, ptr %28, align 8
  %30 = and i32 %29, 1024
  %31 = icmp ne i32 %30, 0
  br i1 %31, label %66, label %32

32:                                               ; preds = %26
  %33 = load ptr, ptr %3, align 8
  %34 = getelementptr inbounds nuw %struct.mz_zip_reader_extract_iter_state, ptr %33, i32 0, i32 7
  %35 = load i64, ptr %34, align 8
  %36 = load ptr, ptr %3, align 8
  %37 = getelementptr inbounds nuw %struct.mz_zip_reader_extract_iter_state, ptr %36, i32 0, i32 9
  %38 = getelementptr inbounds nuw %struct.mz_zip_archive_file_stat, ptr %37, i32 0, i32 8
  %39 = load i64, ptr %38, align 8
  %40 = icmp ne i64 %35, %39
  br i1 %40, label %41, label %48

41:                                               ; preds = %32
  %42 = load ptr, ptr %3, align 8
  %43 = getelementptr inbounds nuw %struct.mz_zip_reader_extract_iter_state, ptr %42, i32 0, i32 0
  %44 = load ptr, ptr %43, align 8
  %45 = call i32 @mz_zip_set_error(ptr noundef %44, i32 noundef 13)
  %46 = load ptr, ptr %3, align 8
  %47 = getelementptr inbounds nuw %struct.mz_zip_reader_extract_iter_state, ptr %46, i32 0, i32 2
  store i32 -1, ptr %47, align 4
  br label %65

48:                                               ; preds = %32
  %49 = load ptr, ptr %3, align 8
  %50 = getelementptr inbounds nuw %struct.mz_zip_reader_extract_iter_state, ptr %49, i32 0, i32 14
  %51 = load i32, ptr %50, align 8
  %52 = load ptr, ptr %3, align 8
  %53 = getelementptr inbounds nuw %struct.mz_zip_reader_extract_iter_state, ptr %52, i32 0, i32 9
  %54 = getelementptr inbounds nuw %struct.mz_zip_archive_file_stat, ptr %53, i32 0, i32 6
  %55 = load i32, ptr %54, align 8
  %56 = icmp ne i32 %51, %55
  br i1 %56, label %57, label %64

57:                                               ; preds = %48
  %58 = load ptr, ptr %3, align 8
  %59 = getelementptr inbounds nuw %struct.mz_zip_reader_extract_iter_state, ptr %58, i32 0, i32 0
  %60 = load ptr, ptr %59, align 8
  %61 = call i32 @mz_zip_set_error(ptr noundef %60, i32 noundef 11)
  %62 = load ptr, ptr %3, align 8
  %63 = getelementptr inbounds nuw %struct.mz_zip_reader_extract_iter_state, ptr %62, i32 0, i32 2
  store i32 -1, ptr %63, align 4
  br label %64

64:                                               ; preds = %57, %48
  br label %65

65:                                               ; preds = %64, %41
  br label %66

66:                                               ; preds = %65, %26, %21
  %67 = load ptr, ptr %3, align 8
  %68 = getelementptr inbounds nuw %struct.mz_zip_reader_extract_iter_state, ptr %67, i32 0, i32 0
  %69 = load ptr, ptr %68, align 8
  %70 = getelementptr inbounds nuw %struct.mz_zip_archive, ptr %69, i32 0, i32 15
  %71 = load ptr, ptr %70, align 8
  %72 = getelementptr inbounds nuw %struct.mz_zip_internal_state_tag, ptr %71, i32 0, i32 8
  %73 = load ptr, ptr %72, align 8
  %74 = icmp ne ptr %73, null
  br i1 %74, label %89, label %75

75:                                               ; preds = %66
  %76 = load ptr, ptr %3, align 8
  %77 = getelementptr inbounds nuw %struct.mz_zip_reader_extract_iter_state, ptr %76, i32 0, i32 0
  %78 = load ptr, ptr %77, align 8
  %79 = getelementptr inbounds nuw %struct.mz_zip_archive, ptr %78, i32 0, i32 8
  %80 = load ptr, ptr %79, align 8
  %81 = load ptr, ptr %3, align 8
  %82 = getelementptr inbounds nuw %struct.mz_zip_reader_extract_iter_state, ptr %81, i32 0, i32 0
  %83 = load ptr, ptr %82, align 8
  %84 = getelementptr inbounds nuw %struct.mz_zip_archive, ptr %83, i32 0, i32 10
  %85 = load ptr, ptr %84, align 8
  %86 = load ptr, ptr %3, align 8
  %87 = getelementptr inbounds nuw %struct.mz_zip_reader_extract_iter_state, ptr %86, i32 0, i32 10
  %88 = load ptr, ptr %87, align 8
  call void %80(ptr noundef %85, ptr noundef %88)
  br label %89

89:                                               ; preds = %75, %66
  %90 = load ptr, ptr %3, align 8
  %91 = getelementptr inbounds nuw %struct.mz_zip_reader_extract_iter_state, ptr %90, i32 0, i32 11
  %92 = load ptr, ptr %91, align 8
  %93 = icmp ne ptr %92, null
  br i1 %93, label %94, label %108

94:                                               ; preds = %89
  %95 = load ptr, ptr %3, align 8
  %96 = getelementptr inbounds nuw %struct.mz_zip_reader_extract_iter_state, ptr %95, i32 0, i32 0
  %97 = load ptr, ptr %96, align 8
  %98 = getelementptr inbounds nuw %struct.mz_zip_archive, ptr %97, i32 0, i32 8
  %99 = load ptr, ptr %98, align 8
  %100 = load ptr, ptr %3, align 8
  %101 = getelementptr inbounds nuw %struct.mz_zip_reader_extract_iter_state, ptr %100, i32 0, i32 0
  %102 = load ptr, ptr %101, align 8
  %103 = getelementptr inbounds nuw %struct.mz_zip_archive, ptr %102, i32 0, i32 10
  %104 = load ptr, ptr %103, align 8
  %105 = load ptr, ptr %3, align 8
  %106 = getelementptr inbounds nuw %struct.mz_zip_reader_extract_iter_state, ptr %105, i32 0, i32 11
  %107 = load ptr, ptr %106, align 8
  call void %99(ptr noundef %104, ptr noundef %107)
  br label %108

108:                                              ; preds = %94, %89
  %109 = load ptr, ptr %3, align 8
  %110 = getelementptr inbounds nuw %struct.mz_zip_reader_extract_iter_state, ptr %109, i32 0, i32 2
  %111 = load i32, ptr %110, align 4
  store i32 %111, ptr %4, align 4
  %112 = load ptr, ptr %3, align 8
  %113 = getelementptr inbounds nuw %struct.mz_zip_reader_extract_iter_state, ptr %112, i32 0, i32 0
  %114 = load ptr, ptr %113, align 8
  %115 = getelementptr inbounds nuw %struct.mz_zip_archive, ptr %114, i32 0, i32 8
  %116 = load ptr, ptr %115, align 8
  %117 = load ptr, ptr %3, align 8
  %118 = getelementptr inbounds nuw %struct.mz_zip_reader_extract_iter_state, ptr %117, i32 0, i32 0
  %119 = load ptr, ptr %118, align 8
  %120 = getelementptr inbounds nuw %struct.mz_zip_archive, ptr %119, i32 0, i32 10
  %121 = load ptr, ptr %120, align 8
  %122 = load ptr, ptr %3, align 8
  call void %116(ptr noundef %121, ptr noundef %122)
  %123 = load i32, ptr %4, align 4
  %124 = icmp eq i32 %123, 0
  %125 = zext i1 %124 to i32
  store i32 %125, ptr %2, align 4
  store i32 1, ptr %5, align 4
  br label %126

126:                                              ; preds = %108, %20
  call void @llvm.lifetime.end.p0(i64 4, ptr %4) #13
  %127 = load i32, ptr %2, align 4
  ret i32 %127
}