; Function Attrs: nounwind uwtable
define range(i32 0, 2) i32 @mz_zip_reader_extract_iter_free(ptr noundef %0) local_unnamed_addr #8 {
  %.not = icmp eq ptr %0, null
  br i1 %.not, label %56, label %2

2:                                                ; preds = %1
  %3 = load ptr, ptr %0, align 8
  %.not29 = icmp eq ptr %3, null
  br i1 %.not29, label %56, label %4

4:                                                ; preds = %2
  %5 = getelementptr inbounds nuw i8, ptr %3, i64 104
  %6 = load ptr, ptr %5, align 8
  %.not30 = icmp eq ptr %6, null
  br i1 %.not30, label %56, label %7

7:                                                ; preds = %4
  %8 = getelementptr inbounds nuw i8, ptr %0, i64 12
  %9 = load i32, ptr %8, align 4
  %10 = icmp eq i32 %9, 0
  br i1 %10, label %11, label %26

11:                                               ; preds = %7
  %12 = getelementptr inbounds nuw i8, ptr %0, i64 8
  %13 = load i32, ptr %12, align 8
  %14 = and i32 %13, 1024
  %.not31 = icmp eq i32 %14, 0
  br i1 %.not31, label %15, label %26

15:                                               ; preds = %11
  %16 = getelementptr inbounds nuw i8, ptr %0, i64 48
  %17 = load i64, ptr %16, align 8
  %18 = getelementptr inbounds nuw i8, ptr %0, i64 104
  %19 = load i64, ptr %18, align 8
  %.not32 = icmp eq i64 %17, %19
  br i1 %.not32, label %20, label %.sink.split

20:                                               ; preds = %15
  %21 = getelementptr inbounds nuw i8, ptr %0, i64 9576
  %22 = load i32, ptr %21, align 8
  %23 = getelementptr inbounds nuw i8, ptr %0, i64 88
  %24 = load i32, ptr %23, align 8
  %.not33 = icmp eq i32 %22, %24
  br i1 %.not33, label %26, label %.sink.split

.sink.split:                                      ; preds = %20, %15
  %.sink = phi i32 [ 13, %15 ], [ 11, %20 ]
  %25 = getelementptr inbounds nuw i8, ptr %3, i64 28
  store i32 %.sink, ptr %25, align 4
  store i32 -1, ptr %8, align 4
  br label %26

26:                                               ; preds = %.sink.split, %20, %11, %7
  %27 = load ptr, ptr %0, align 8
  %28 = getelementptr inbounds nuw i8, ptr %27, i64 104
  %29 = load ptr, ptr %28, align 8
  %30 = getelementptr inbounds nuw i8, ptr %29, i64 128
  %31 = load ptr, ptr %30, align 8
  %.not34 = icmp eq ptr %31, null
  br i1 %.not34, label %32, label %39

32:                                               ; preds = %26
  %33 = getelementptr inbounds nuw i8, ptr %27, i64 48
  %34 = load ptr, ptr %33, align 8
  %35 = getelementptr inbounds nuw i8, ptr %27, i64 64
  %36 = load ptr, ptr %35, align 8
  %37 = getelementptr inbounds nuw i8, ptr %0, i64 1176
  %38 = load ptr, ptr %37, align 8
  tail call void %34(ptr noundef %36, ptr noundef %38) #34
  %.pre38.pre = load ptr, ptr %0, align 8
  br label %39

39:                                               ; preds = %32, %26
  %.pre38 = phi ptr [ %.pre38.pre, %32 ], [ %27, %26 ]
  %40 = getelementptr inbounds nuw i8, ptr %0, i64 1184
  %41 = load ptr, ptr %40, align 8
  %.not35 = icmp eq ptr %41, null
  br i1 %.not35, label %47, label %42

42:                                               ; preds = %39
  %43 = getelementptr inbounds nuw i8, ptr %.pre38, i64 48
  %44 = load ptr, ptr %43, align 8
  %45 = getelementptr inbounds nuw i8, ptr %.pre38, i64 64
  %46 = load ptr, ptr %45, align 8
  tail call void %44(ptr noundef %46, ptr noundef nonnull %41) #34
  %.pre = load ptr, ptr %0, align 8
  br label %47

47:                                               ; preds = %42, %39
  %48 = phi ptr [ %.pre, %42 ], [ %.pre38, %39 ]
  %49 = load i32, ptr %8, align 4
  %50 = getelementptr inbounds nuw i8, ptr %48, i64 48
  %51 = load ptr, ptr %50, align 8
  %52 = getelementptr inbounds nuw i8, ptr %48, i64 64
  %53 = load ptr, ptr %52, align 8
  tail call void %51(ptr noundef %53, ptr noundef nonnull %0) #34
  %54 = icmp eq i32 %49, 0
  %55 = zext i1 %54 to i32
  br label %56

56:                                               ; preds = %1, %2, %4, %47
  %.0 = phi i32 [ %55, %47 ], [ 0, %4 ], [ 0, %2 ], [ 0, %1 ]
  ret i32 %.0
}